target datalayout = "e-m:e-p270:32:32-p271:32:32-p272:64:64-i64:64-i128:128-f80:128-n8:16:32:64-S128"
target triple = "x86_64-pc-linux-gnu"

%struct._zend_phar_globals = type { %struct._zend_array, %struct._zend_array, ptr, %struct._zend_array, i32, ptr, i8, i8, i8, i8, i8, i8, i8, i8, i8, i8, i8, i8, ptr, ptr, ptr, ptr, ptr, ptr, ptr, ptr, ptr, ptr, ptr, ptr, ptr, ptr, ptr, ptr, ptr, ptr, ptr, ptr, ptr, ptr, ptr, i32, i8, ptr, i32, ptr, i32, ptr, i32, ptr, %struct._zend_array }
%struct._zend_array = type { %struct._zend_refcounted_h, %union.anon.0, i32, %union.anon.1, i32, i32, i32, i32, i64, ptr }
%struct._zend_refcounted_h = type { i32, %union.anon }
%union.anon = type { i32 }
%union.anon.0 = type { i32 }
%union.anon.1 = type { ptr }
%struct._zval_struct = type { %union._zend_value, %union.anon.3, %union.anon.6 }
%union._zend_value = type { i64 }
%union.anon.3 = type { i32 }
%union.anon.6 = type { i32 }
%struct.php_file_globals = type { i32, i64, i8, i64, ptr, ptr, ptr, ptr, ptr, ptr, ptr, i32, %struct.hostent, ptr, i64 }
%struct.hostent = type { ptr, ptr, i32, i32, ptr }
%struct._zend_execute_data = type { ptr, ptr, ptr, ptr, %struct._zval_struct, ptr, ptr, ptr, ptr }
%struct._zend_string = type { %struct._zend_refcounted_h, i64, i64, [1 x i8] }

@phar_globals = external global %struct._zend_phar_globals, align 8
@cached_phars = external global %struct._zend_array, align 8
@.str.1 = private unnamed_addr constant [4 x i8] c"://\00", align 1
@.str.5 = private unnamed_addr constant [15 x i8] c"Stream-Context\00", align 1
@file_globals = external global %struct.php_file_globals, align 8
@.str.8 = private unnamed_addr constant [3 x i8] c"rb\00", align 1
@.str.10 = private unnamed_addr constant [6 x i8] c"P|br!\00", align 1

; Function Attrs: alwaysinline nounwind uwtable
define internal i32 @zend_gc_delref(ptr noundef %0) #2 {
  %2 = alloca ptr, align 8
  store ptr %0, ptr %2, align 8, !tbaa !170
  %3 = load ptr, ptr %2, align 8, !tbaa !170
  %4 = getelementptr inbounds nuw %struct._zend_refcounted_h, ptr %3, i32 0, i32 0
  %5 = load i32, ptr %4, align 4, !tbaa !172
  %6 = icmp ugt i32 %5, 0
  call void @llvm.assume(i1 %6)
  br label %7

7:                                                ; preds = %1
  br label %8

8:                                                ; preds = %7
  %9 = load ptr, ptr %2, align 8, !tbaa !170
  %10 = getelementptr inbounds nuw %struct._zend_refcounted_h, ptr %9, i32 0, i32 0
  %11 = load i32, ptr %10, align 4, !tbaa !172
  %12 = add i32 %11, -1
  store i32 %12, ptr %10, align 4, !tbaa !172
  ret i32 %12
}

; Function Attrs: alwaysinline nounwind uwtable
define internal i32 @zval_gc_flags(i32 noundef %0) #2 {
  %2 = alloca i32, align 4
  store i32 %0, ptr %2, align 4, !tbaa !79
  %3 = load i32, ptr %2, align 4, !tbaa !79
  %4 = lshr i32 %3, 0
  %5 = and i32 %4, 1008
  ret i32 %5
}

; Function Attrs: alwaysinline nounwind uwtable
define internal void @zend_string_release_ex(ptr noundef %0, i1 noundef zeroext %1) #2 {
  %3 = alloca ptr, align 8
  %4 = alloca i8, align 1
  store ptr %0, ptr %3, align 8, !tbaa !52
  %5 = zext i1 %1 to i8
  store i8 %5, ptr %4, align 1, !tbaa !76
  %6 = load ptr, ptr %3, align 8, !tbaa !52
  %7 = getelementptr inbounds nuw %struct._zend_string, ptr %6, i32 0, i32 0
  %8 = getelementptr inbounds nuw %struct._zend_refcounted_h, ptr %7, i32 0, i32 1
  %9 = load i32, ptr %8, align 4, !tbaa !23
  %10 = call i32 @zval_gc_flags(i32 noundef %9)
  %11 = and i32 %10, 64
  %12 = icmp ne i32 %11, 0
  br i1 %12, label %27, label %13

13:                                               ; preds = %2
  %14 = load ptr, ptr %3, align 8, !tbaa !52
  %15 = getelementptr inbounds nuw %struct._zend_string, ptr %14, i32 0, i32 0
  %16 = call i32 @zend_gc_delref(ptr noundef %15)
  %17 = icmp eq i32 %16, 0
  br i1 %17, label %18, label %26

18:                                               ; preds = %13
  %19 = load i8, ptr %4, align 1, !tbaa !76, !range !21, !noundef !22
  %20 = trunc i8 %19 to i1
  br i1 %20, label %21, label %23

21:                                               ; preds = %18
  %22 = load ptr, ptr %3, align 8, !tbaa !52
  call void @free(ptr noundef %22) #11
  br label %25

23:                                               ; preds = %18
  %24 = load ptr, ptr %3, align 8, !tbaa !52
  call void @_efree(ptr noundef %24)
  br label %25

25:                                               ; preds = %23, %21
  br label %26

26:                                               ; preds = %25, %13
  br label %27

27:                                               ; preds = %26, %2
  ret void
}

; Function Attrs: alwaysinline nounwind uwtable
define internal i32 @zend_hash_num_elements(ptr noundef %0) #2 {
  %2 = alloca ptr, align 8
  store ptr %0, ptr %2, align 8, !tbaa !74
  %3 = load ptr, ptr %2, align 8, !tbaa !74
  %4 = getelementptr inbounds nuw %struct._zend_array, ptr %3, i32 0, i32 5
  %5 = load i32, ptr %4, align 4, !tbaa !75
  ret i32 %5
}

; Function Attrs: nounwind uwtable
define hidden void @zif_phar_readfile(ptr noundef %0, ptr noundef %1) #0 {
  %3 = alloca ptr, align 8
  %4 = alloca ptr, align 8
  %5 = alloca ptr, align 8
  %6 = alloca i8, align 1
  %7 = alloca ptr, align 8
  %8 = alloca ptr, align 8
  %9 = alloca ptr, align 8
  %10 = alloca ptr, align 8
  %11 = alloca i32, align 4
  %12 = alloca i64, align 8
  %13 = alloca ptr, align 8
  store ptr %0, ptr %3, align 8, !tbaa !4
  store ptr %1, ptr %4, align 8, !tbaa !9
  call void @llvm.lifetime.start.p0(i64 8, ptr %5) #11
  call void @llvm.lifetime.start.p0(i64 1, ptr %6) #11
  store i8 0, ptr %6, align 1, !tbaa !76
  call void @llvm.lifetime.start.p0(i64 8, ptr %7) #11
  store ptr null, ptr %7, align 8, !tbaa !9
  %14 = load i8, ptr getelementptr inbounds nuw (%struct._zend_phar_globals, ptr @phar_globals, i32 0, i32 13), align 1, !tbaa !11, !range !21, !noundef !22
  %15 = trunc i8 %14 to i1
  br i1 %15, label %17, label %16

16:                                               ; preds = %2
  br label %119

17:                                               ; preds = %2
  %18 = load i32, ptr getelementptr inbounds nuw (%struct._zend_array, ptr getelementptr inbounds nuw (%struct._zend_phar_globals, ptr @phar_globals, i32 0, i32 1), i32 0, i32 1), align 8, !tbaa !23
  %19 = and i32 %18, 8
  %20 = icmp eq i32 %19, 0
  br i1 %20, label %21, label %29

21:                                               ; preds = %17
  %22 = call i32 @zend_hash_num_elements(ptr noundef getelementptr inbounds nuw (%struct._zend_phar_globals, ptr @phar_globals, i32 0, i32 1))
  %23 = icmp ne i32 %22, 0
  br i1 %23, label %29, label %24

24:                                               ; preds = %21
  %25 = load i32, ptr getelementptr inbounds nuw (%struct._zend_array, ptr @cached_phars, i32 0, i32 1), align 8, !tbaa !23
  %26 = and i32 %25, 8
  %27 = icmp eq i32 %26, 0
  br i1 %27, label %29, label %28

28:                                               ; preds = %24
  br label %119

29:                                               ; preds = %24, %21, %17
  %30 = load ptr, ptr %3, align 8, !tbaa !4
  %31 = getelementptr inbounds nuw %struct._zend_execute_data, ptr %30, i32 0, i32 4
  %32 = getelementptr inbounds nuw %struct._zval_struct, ptr %31, i32 0, i32 2
  %33 = load i32, ptr %32, align 4, !tbaa !23
  %34 = call i32 (i32, i32, ptr, ...) @zend_parse_parameters_ex(i32 noundef 2, i32 noundef %33, ptr noundef @.str.10, ptr noundef %5, ptr noundef %6, ptr noundef %7)
  %35 = icmp eq i32 %34, -1
  br i1 %35, label %36, label %37

36:                                               ; preds = %29
  br label %119

37:                                               ; preds = %29
  %38 = load i8, ptr %6, align 1, !tbaa !76, !range !21, !noundef !22
  %39 = trunc i8 %38 to i1
  br i1 %39, label %53, label %40

40:                                               ; preds = %37
  %41 = load ptr, ptr %5, align 8, !tbaa !52
  %42 = getelementptr inbounds nuw %struct._zend_string, ptr %41, i32 0, i32 3
  %43 = getelementptr inbounds [1 x i8], ptr %42, i64 0, i64 0
  %44 = load i8, ptr %43, align 8, !tbaa !23
  %45 = sext i8 %44 to i32
  %46 = icmp eq i32 %45, 47
  br i1 %46, label %118, label %47

47:                                               ; preds = %40
  %48 = load ptr, ptr %5, align 8, !tbaa !52
  %49 = getelementptr inbounds nuw %struct._zend_string, ptr %48, i32 0, i32 3
  %50 = getelementptr inbounds [1 x i8], ptr %49, i64 0, i64 0
  %51 = call ptr @strstr(ptr noundef %50, ptr noundef @.str.1) #12
  %52 = icmp ne ptr %51, null
  br i1 %52, label %118, label %53

53:                                               ; preds = %47, %37
  call void @llvm.lifetime.start.p0(i64 8, ptr %8) #11
  %54 = load ptr, ptr %5, align 8, !tbaa !52
  %55 = load i8, ptr %6, align 1, !tbaa !76, !range !21, !noundef !22
  %56 = trunc i8 %55 to i1
  %57 = call ptr @phar_get_name_for_relative_paths(ptr noundef %54, i1 noundef zeroext %56)
  store ptr %57, ptr %8, align 8, !tbaa !52
  %58 = load ptr, ptr %8, align 8, !tbaa !52
  %59 = icmp ne ptr %58, null
  br i1 %59, label %61, label %60

60:                                               ; preds = %53
  store i32 2, ptr %11, align 4
  br label %115

61:                                               ; preds = %53
  call void @llvm.lifetime.start.p0(i64 8, ptr %9) #11
  call void @llvm.lifetime.start.p0(i64 8, ptr %10) #11
  %62 = load ptr, ptr %7, align 8, !tbaa !9
  %63 = icmp ne ptr %62, null
  br i1 %63, label %64, label %68

64:                                               ; preds = %61
  %65 = load ptr, ptr %7, align 8, !tbaa !9
  %66 = call i32 @php_le_stream_context()
  %67 = call ptr @zend_fetch_resource_ex(ptr noundef %65, ptr noundef @.str.5, i32 noundef %66)
  br label %77

68:                                               ; preds = %61
  %69 = load ptr, ptr getelementptr inbounds nuw (%struct.php_file_globals, ptr @file_globals, i32 0, i32 7), align 8, !tbaa !58
  %70 = icmp ne ptr %69, null
  br i1 %70, label %71, label %73

71:                                               ; preds = %68
  %72 = load ptr, ptr getelementptr inbounds nuw (%struct.php_file_globals, ptr @file_globals, i32 0, i32 7), align 8, !tbaa !58
  br label %75

73:                                               ; preds = %68
  %74 = call ptr @php_stream_context_alloc()
  store ptr %74, ptr getelementptr inbounds nuw (%struct.php_file_globals, ptr @file_globals, i32 0, i32 7), align 8, !tbaa !58
  br label %75

75:                                               ; preds = %73, %71
  %76 = phi ptr [ %72, %71 ], [ %74, %73 ]
  br label %77

77:                                               ; preds = %75, %64
  %78 = phi ptr [ %67, %64 ], [ %76, %75 ]
  store ptr %78, ptr %10, align 8, !tbaa !55
  %79 = load ptr, ptr %8, align 8, !tbaa !52
  %80 = getelementptr inbounds nuw %struct._zend_string, ptr %79, i32 0, i32 3
  %81 = getelementptr inbounds [1 x i8], ptr %80, i64 0, i64 0
  %82 = load ptr, ptr %10, align 8, !tbaa !55
  %83 = call ptr @_php_stream_open_wrapper_ex(ptr noundef %81, ptr noundef @.str.8, i32 noundef 8, ptr noundef null, ptr noundef %82)
  store ptr %83, ptr %9, align 8, !tbaa !62
  %84 = load ptr, ptr %8, align 8, !tbaa !52
  call void @zend_string_release_ex(ptr noundef %84, i1 noundef zeroext false)
  %85 = load ptr, ptr %9, align 8, !tbaa !62
  %86 = icmp eq ptr %85, null
  br i1 %86, label %87, label %96

87:                                               ; preds = %77
  br label %88

88:                                               ; preds = %87
  br label %89

89:                                               ; preds = %88
  %90 = load ptr, ptr %4, align 8, !tbaa !9
  %91 = getelementptr inbounds nuw %struct._zval_struct, ptr %90, i32 0, i32 1
  store i32 2, ptr %91, align 8, !tbaa !23
  br label %92

92:                                               ; preds = %89
  br label %93

93:                                               ; preds = %92
  store i32 1, ptr %11, align 4
  br label %114

94:                                               ; No predecessors!
  br label %95

95:                                               ; preds = %94
  br label %96

96:                                               ; preds = %95, %77
  call void @llvm.lifetime.start.p0(i64 8, ptr %12) #11
  %97 = load ptr, ptr %9, align 8, !tbaa !62
  %98 = call i64 @_php_stream_passthru(ptr noundef %97)
  store i64 %98, ptr %12, align 8, !tbaa !57
  %99 = load ptr, ptr %9, align 8, !tbaa !62
  %100 = call i32 @_php_stream_free(ptr noundef %99, i32 noundef 3)
  br label %101

101:                                              ; preds = %96
  br label %102

102:                                              ; preds = %101
  call void @llvm.lifetime.start.p0(i64 8, ptr %13) #11
  %103 = load ptr, ptr %4, align 8, !tbaa !9
  store ptr %103, ptr %13, align 8, !tbaa !9
  %104 = load i64, ptr %12, align 8, !tbaa !57
  %105 = load ptr, ptr %13, align 8, !tbaa !9
  %106 = getelementptr inbounds nuw %struct._zval_struct, ptr %105, i32 0, i32 0
  store i64 %104, ptr %106, align 8, !tbaa !23
  %107 = load ptr, ptr %13, align 8, !tbaa !9
  %108 = getelementptr inbounds nuw %struct._zval_struct, ptr %107, i32 0, i32 1
  store i32 4, ptr %108, align 8, !tbaa !23
  call void @llvm.lifetime.end.p0(i64 8, ptr %13) #11
  br label %109

109:                                              ; preds = %102
  br label %110

110:                                              ; preds = %109
  store i32 1, ptr %11, align 4
  br label %113

111:                                              ; No predecessors!
  br label %112

112:                                              ; preds = %111
  store i32 0, ptr %11, align 4
  br label %113

113:                                              ; preds = %112, %110
  call void @llvm.lifetime.end.p0(i64 8, ptr %12) #11
  br label %114

114:                                              ; preds = %113, %93
  call void @llvm.lifetime.end.p0(i64 8, ptr %10) #11
  call void @llvm.lifetime.end.p0(i64 8, ptr %9) #11
  br label %115

115:                                              ; preds = %60, %114
  call void @llvm.lifetime.end.p0(i64 8, ptr %8) #11
  %116 = load i32, ptr %11, align 4
  switch i32 %116, label %123 [
    i32 0, label %117
    i32 2, label %119
  ]

117:                                              ; preds = %115
  br label %118

118:                                              ; preds = %117, %47, %40
  br label %119

119:                                              ; preds = %118, %115, %36, %28, %16
  %120 = load ptr, ptr getelementptr inbounds nuw (%struct._zend_phar_globals, ptr @phar_globals, i32 0, i32 38), align 8, !tbaa !80
  %121 = load ptr, ptr %3, align 8, !tbaa !4
  %122 = load ptr, ptr %4, align 8, !tbaa !9
  call void %120(ptr noundef %121, ptr noundef %122)
  store i32 1, ptr %11, align 4
  br label %123

123:                                              ; preds = %119, %115
  call void @llvm.lifetime.end.p0(i64 8, ptr %7) #11
  call void @llvm.lifetime.end.p0(i64 1, ptr %6) #11
  call void @llvm.lifetime.end.p0(i64 8, ptr %5) #11
  ret void
}