; Function Attrs: nounwind uwtable
define hidden void @zif_phar_readfile(ptr noundef %0, ptr noundef %1) #0 {
  %3 = alloca ptr, align 8
  %4 = alloca i8, align 1
  %5 = alloca ptr, align 8
  call void @llvm.lifetime.start.p0(i64 8, ptr nonnull %3) #12
  call void @llvm.lifetime.start.p0(i64 1, ptr nonnull %4) #12
  store i8 0, ptr %4, align 1, !tbaa !65
  call void @llvm.lifetime.start.p0(i64 8, ptr nonnull %5) #12
  store ptr null, ptr %5, align 8, !tbaa !4
  %6 = load i8, ptr getelementptr inbounds nuw (i8, ptr @phar_globals, i64 199), align 1, !tbaa !9, !range !19, !noundef !20
  %7 = trunc nuw i8 %6 to i1
  br i1 %7, label %8, label %62

8:                                                ; preds = %2
  %9 = load i32, ptr getelementptr inbounds nuw (i8, ptr @phar_globals, i64 64), align 8, !tbaa !21
  %10 = and i32 %9, 8
  %11 = icmp eq i32 %10, 0
  %12 = load i32, ptr getelementptr inbounds nuw (i8, ptr @phar_globals, i64 84), align 4
  %.not = icmp eq i32 %12, 0
  %or.cond = select i1 %11, i1 %.not, i1 false
  br i1 %or.cond, label %13, label %17

13:                                               ; preds = %8
  %14 = load i32, ptr getelementptr inbounds nuw (i8, ptr @cached_phars, i64 8), align 8, !tbaa !21
  %15 = and i32 %14, 8
  %16 = icmp eq i32 %15, 0
  br i1 %16, label %17, label %62

17:                                               ; preds = %13, %8
  %18 = getelementptr inbounds nuw i8, ptr %0, i64 44
  %19 = load i32, ptr %18, align 4, !tbaa !21
  %20 = call i32 (i32, i32, ptr, ...) @zend_parse_parameters_ex(i32 noundef 2, i32 noundef %19, ptr noundef nonnull @.str.10, ptr noundef nonnull %3, ptr noundef nonnull %4, ptr noundef nonnull %5) #12
  %21 = icmp eq i32 %20, -1
  br i1 %21, label %62, label %22

22:                                               ; preds = %17
  %23 = load i8, ptr %4, align 1, !tbaa !65, !range !19, !noundef !20
  %24 = trunc nuw i8 %23 to i1
  %.pre = load ptr, ptr %3, align 8, !tbaa !66
  br i1 %24, label %31, label %25

25:                                               ; preds = %22
  %26 = getelementptr inbounds nuw i8, ptr %.pre, i64 24
  %27 = load i8, ptr %26, align 8, !tbaa !21
  %28 = icmp eq i8 %27, 47
  br i1 %28, label %62, label %29

29:                                               ; preds = %25
  %30 = call ptr @strstr(ptr noundef nonnull dereferenceable(1) %26, ptr noundef nonnull dereferenceable(1) @.str.1) #13
  %.not19 = icmp eq ptr %30, null
  br i1 %.not19, label %31, label %62

31:                                               ; preds = %29, %22
  %32 = call fastcc ptr @phar_get_name_for_relative_paths(ptr noundef %.pre, i1 noundef zeroext %24)
  %.not20 = icmp eq ptr %32, null
  br i1 %.not20, label %62, label %33

33:                                               ; preds = %31
  %34 = load ptr, ptr %5, align 8, !tbaa !4
  %.not21 = icmp eq ptr %34, null
  br i1 %.not21, label %38, label %35

35:                                               ; preds = %33
  %36 = call i32 @php_le_stream_context() #12
  %37 = call ptr @zend_fetch_resource_ex(ptr noundef nonnull %34, ptr noundef nonnull @.str.5, i32 noundef %36) #12
  br label %42

38:                                               ; preds = %33
  %39 = load ptr, ptr getelementptr inbounds nuw (i8, ptr @file_globals, i64 56), align 8, !tbaa !70
  %.not22 = icmp eq ptr %39, null
  br i1 %.not22, label %40, label %42

40:                                               ; preds = %38
  %41 = call ptr @php_stream_context_alloc() #12
  store ptr %41, ptr getelementptr inbounds nuw (i8, ptr @file_globals, i64 56), align 8, !tbaa !70
  br label %42

42:                                               ; preds = %38, %40, %35
  %43 = phi ptr [ %37, %35 ], [ %41, %40 ], [ %39, %38 ]
  %44 = getelementptr inbounds nuw i8, ptr %32, i64 24
  %45 = call ptr @_php_stream_open_wrapper_ex(ptr noundef nonnull %44, ptr noundef nonnull @.str.8, i32 noundef 8, ptr noundef null, ptr noundef %43) #12
  %46 = getelementptr inbounds nuw i8, ptr %32, i64 4
  %47 = load i32, ptr %46, align 4, !tbaa !21
  %48 = and i32 %47, 64
  %.not.i = icmp eq i32 %48, 0
  br i1 %.not.i, label %49, label %zend_string_release_ex.exit

49:                                               ; preds = %42
  %50 = load i32, ptr %32, align 4, !tbaa !67
  %51 = icmp ne i32 %50, 0
  call void @llvm.assume(i1 %51)
  %52 = add i32 %50, -1
  store i32 %52, ptr %32, align 4, !tbaa !67
  %53 = icmp eq i32 %52, 0
  br i1 %53, label %54, label %zend_string_release_ex.exit

54:                                               ; preds = %49
  call void @_efree(ptr noundef nonnull %32) #12
  br label %zend_string_release_ex.exit

zend_string_release_ex.exit:                      ; preds = %42, %49, %54
  %55 = icmp eq ptr %45, null
  br i1 %55, label %56, label %58

56:                                               ; preds = %zend_string_release_ex.exit
  %57 = getelementptr inbounds nuw i8, ptr %1, i64 8
  store i32 2, ptr %57, align 8, !tbaa !21
  br label %.thread

58:                                               ; preds = %zend_string_release_ex.exit
  %59 = call i64 @_php_stream_passthru(ptr noundef nonnull %45) #12
  %60 = call i32 @_php_stream_free(ptr noundef nonnull %45, i32 noundef 3) #12
  store i64 %59, ptr %1, align 8, !tbaa !21
  %61 = getelementptr inbounds nuw i8, ptr %1, i64 8
  store i32 4, ptr %61, align 8, !tbaa !21
  br label %.thread

62:                                               ; preds = %31, %25, %29, %17, %13, %2
  %63 = load ptr, ptr getelementptr inbounds nuw (i8, ptr @phar_globals, i64 368), align 8, !tbaa !75
  call void %63(ptr noundef %0, ptr noundef %1) #12
  br label %.thread

.thread:                                          ; preds = %56, %58, %62
  call void @llvm.lifetime.end.p0(i64 8, ptr nonnull %5) #12
  call void @llvm.lifetime.end.p0(i64 1, ptr nonnull %4) #12
  call void @llvm.lifetime.end.p0(i64 8, ptr nonnull %3) #12
  ret void
}